; Function Attrs: mustprogress uwtable
define hidden void @_ZN2cv16VideoInputStream5closeEv(ptr noundef nonnull align 8 dereferenceable(560) %0) local_unnamed_addr #4 align 2 {
  %2 = getelementptr inbounds nuw i8, ptr %0, i64 120
  %3 = tail call noundef zeroext i1 @_ZNKSt12__basic_fileIcE7is_openEv(ptr noundef nonnull readonly align 8 dereferenceable(9) %2) #29
  br i1 %3, label %4, label %_ZNSt14basic_ifstreamIcSt11char_traitsIcEE5closeEv.exit

4:                                                ; preds = %1
  %5 = getelementptr inbounds nuw i8, ptr %0, i64 520
  store i8 0, ptr %5, align 8, !tbaa !3
  %6 = getelementptr inbounds nuw i8, ptr %0, i64 16
  %7 = tail call noundef ptr @_ZNSt13basic_filebufIcSt11char_traitsIcEE5closeEv(ptr noundef nonnull align 8 dereferenceable(240) %6)
  %.not.i = icmp eq ptr %7, null
  br i1 %.not.i, label %8, label %_ZNSt14basic_ifstreamIcSt11char_traitsIcEE5closeEv.exit

8:                                                ; preds = %4
  %9 = load ptr, ptr %0, align 8, !tbaa !29
  %10 = getelementptr i8, ptr %9, i64 -24
  %11 = load i64, ptr %10, align 8
  %12 = getelementptr inbounds i8, ptr %0, i64 %11
  %13 = getelementptr inbounds nuw i8, ptr %12, i64 32
  %14 = load i32, ptr %13, align 8, !tbaa !31
  %15 = or i32 %14, 4
  tail call void @_ZNSt9basic_iosIcSt11char_traitsIcEE5clearESt12_Ios_Iostate(ptr noundef nonnull align 8 dereferenceable(264) %12, i32 noundef %15)
  br label %_ZNSt14basic_ifstreamIcSt11char_traitsIcEE5closeEv.exit

_ZNSt14basic_ifstreamIcSt11char_traitsIcEE5closeEv.exit: ; preds = %8, %4, %1
  ret void
}